target datalayout = "e-m:e-p270:32:32-p271:32:32-p272:64:64-i64:64-i128:128-f80:128-n8:16:32:64-S128"
target triple = "x86_64-pc-linux-gnu"

%struct.ObjectAddress = type { i32, i32, i32 }
%struct.ScanKeyData = type { i32, i16, i16, i32, i32, %struct.FmgrInfo, i64 }
%struct.FmgrInfo = type { ptr, i32, i16, i8, i8, i8, ptr, ptr, ptr }
%struct.RelationData = type { %struct.RelFileLocator, ptr, i32, i32, i8, i8, i8, i8, i8, i32, i32, i32, i32, ptr, ptr, i32, %struct.LockInfoData, ptr, ptr, ptr, ptr, ptr, i8, ptr, ptr, ptr, ptr, ptr, ptr, i32, ptr, i8, ptr, ptr, i32, i8, i32, ptr, i8, ptr, ptr, ptr, ptr, ptr, ptr, ptr, i32, ptr, ptr, ptr, ptr, ptr, ptr, ptr, ptr, ptr, ptr, ptr, ptr, ptr, ptr, ptr, ptr, ptr, ptr, ptr, i32, i8, ptr }
%struct.RelFileLocator = type { i32, i32, i32 }
%struct.LockInfoData = type { %struct.LockRelId }
%struct.LockRelId = type { i32, i32 }
%struct.FormData_pg_class = type { i32, %struct.nameData, i32, i32, i32, i32, i32, i32, i32, i32, float, i32, i32, i8, i8, i8, i8, i16, i16, i8, i8, i8, i8, i8, i8, i8, i8, i32, i32, i32 }
%struct.nameData = type { [64 x i8] }
%struct.FormData_pg_trigger = type { i32, i32, i32, %struct.nameData, i32, i16, i8, i8, i32, i32, i32, i8, i8, i16, %struct.int2vector }
%struct.int2vector = type { i32, i32, i32, i32, i32, i32, [0 x i16] }
%struct.HeapTupleData = type { i32, %struct.ItemPointerData, i32, ptr }
%struct.ItemPointerData = type { %struct.BlockIdData, i16 }
%struct.BlockIdData = type { i16, i16 }
%struct.PartitionDescData = type { i32, i8, ptr, ptr, ptr, i32, i32, i32 }
%struct.HeapTupleHeaderData = type { %union.anon, %struct.ItemPointerData, i16, i16, i8, [0 x i8] }
%union.anon = type { %struct.HeapTupleFields }
%struct.HeapTupleFields = type { i32, i32, %union.anon.1 }
%union.anon.1 = type { i32 }
%struct.RenameStmt = type { i32, i32, i32, ptr, ptr, ptr, ptr, i32, i8 }

@.str.2 = private unnamed_addr constant [10 x i8] c"trigger.c\00", align 1
@.str.57 = private unnamed_addr constant [43 x i8] c"trigger \22%s\22 for table \22%s\22 does not exist\00", align 1
@.str.58 = private unnamed_addr constant [41 x i8] c"cannot rename trigger \22%s\22 on table \22%s\22\00", align 1
@.str.59 = private unnamed_addr constant [58 x i8] c"Rename the trigger on the partitioned table \22%s\22 instead.\00", align 1
@__func__.renametrig = private unnamed_addr constant [11 x i8] c"renametrig\00", align 1

; Function Attrs: inlinehint nounwind uwtable
define internal ptr @GETSTRUCT(ptr noundef %0) #7 {
  %2 = alloca ptr, align 8
  store ptr %0, ptr %2, align 8
  %3 = load ptr, ptr %2, align 8
  %4 = getelementptr inbounds nuw %struct.HeapTupleData, ptr %3, i32 0, i32 3
  %5 = load ptr, ptr %4, align 8
  %6 = load ptr, ptr %2, align 8
  %7 = getelementptr inbounds nuw %struct.HeapTupleData, ptr %6, i32 0, i32 3
  %8 = load ptr, ptr %7, align 8
  %9 = getelementptr inbounds nuw %struct.HeapTupleHeaderData, ptr %8, i32 0, i32 4
  %10 = load i8, ptr %9, align 2
  %11 = zext i8 %10 to i32
  %12 = sext i32 %11 to i64
  %13 = getelementptr inbounds i8, ptr %5, i64 %12
  ret ptr %13
}

; Function Attrs: inlinehint nounwind uwtable
define internal i64 @PointerGetDatum(ptr noundef %0) #7 {
  %2 = alloca ptr, align 8
  store ptr %0, ptr %2, align 8
  %3 = load ptr, ptr %2, align 8
  %4 = ptrtoint ptr %3 to i64
  ret i64 %4
}

; Function Attrs: inlinehint nounwind uwtable
define internal i64 @ObjectIdGetDatum(i32 noundef %0) #7 {
  %2 = alloca i32, align 4
  store i32 %0, ptr %2, align 4
  %3 = load i32, ptr %2, align 4
  %4 = zext i32 %3 to i64
  ret i64 %4
}

; Function Attrs: nounwind uwtable
define dso_local { i64, i32 } @renametrig(ptr noundef %0) #0 {
  %2 = alloca %struct.ObjectAddress, align 4
  %3 = alloca ptr, align 8
  %4 = alloca i32, align 4
  %5 = alloca ptr, align 8
  %6 = alloca ptr, align 8
  %7 = alloca ptr, align 8
  %8 = alloca ptr, align 8
  %9 = alloca [2 x %struct.ScanKeyData], align 16
  %10 = alloca i32, align 4
  %11 = alloca ptr, align 8
  %12 = alloca ptr, align 8
  %13 = alloca i32, align 4
  %14 = alloca i32, align 4
  %15 = alloca { i64, i32 }, align 8
  store ptr %0, ptr %3, align 8
  call void @llvm.lifetime.start.p0(i64 4, ptr %4) #12
  call void @llvm.lifetime.start.p0(i64 8, ptr %5) #12
  call void @llvm.lifetime.start.p0(i64 8, ptr %6) #12
  call void @llvm.lifetime.start.p0(i64 8, ptr %7) #12
  call void @llvm.lifetime.start.p0(i64 8, ptr %8) #12
  call void @llvm.lifetime.start.p0(i64 144, ptr %9) #12
  call void @llvm.lifetime.start.p0(i64 4, ptr %10) #12
  %16 = load ptr, ptr %3, align 8
  %17 = getelementptr inbounds nuw %struct.RenameStmt, ptr %16, i32 0, i32 3
  %18 = load ptr, ptr %17, align 8
  %19 = call i32 @RangeVarGetRelidExtended(ptr noundef %18, i32 noundef 8, i32 noundef 0, ptr noundef @RangeVarCallbackForRenameTrigger, ptr noundef null)
  store i32 %19, ptr %10, align 4
  %20 = load i32, ptr %10, align 4
  %21 = call ptr @relation_open(i32 noundef %20, i32 noundef 0)
  store ptr %21, ptr %5, align 8
  %22 = load ptr, ptr %5, align 8
  %23 = getelementptr inbounds nuw %struct.RelationData, ptr %22, i32 0, i32 13
  %24 = load ptr, ptr %23, align 8
  %25 = getelementptr inbounds nuw %struct.FormData_pg_class, ptr %24, i32 0, i32 16
  %26 = load i8, ptr %25, align 1
  %27 = sext i8 %26 to i32
  %28 = icmp eq i32 %27, 112
  br i1 %28, label %29, label %32

29:                                               ; preds = %1
  %30 = load i32, ptr %10, align 4
  %31 = call ptr @find_all_inheritors(i32 noundef %30, i32 noundef 8, ptr noundef null)
  br label %32

32:                                               ; preds = %29, %1
  %33 = call ptr @table_open(i32 noundef 2620, i32 noundef 3)
  store ptr %33, ptr %6, align 8
  %34 = getelementptr inbounds [2 x %struct.ScanKeyData], ptr %9, i64 0, i64 0
  %35 = load i32, ptr %10, align 4
  %36 = call i64 @ObjectIdGetDatum(i32 noundef %35)
  call void @ScanKeyInit(ptr noundef %34, i16 noundef signext 2, i16 noundef zeroext 3, i32 noundef 184, i64 noundef %36)
  %37 = getelementptr inbounds [2 x %struct.ScanKeyData], ptr %9, i64 0, i64 1
  %38 = load ptr, ptr %3, align 8
  %39 = getelementptr inbounds nuw %struct.RenameStmt, ptr %38, i32 0, i32 5
  %40 = load ptr, ptr %39, align 8
  %41 = call i64 @PointerGetDatum(ptr noundef %40)
  call void @ScanKeyInit(ptr noundef %37, i16 noundef signext 4, i16 noundef zeroext 3, i32 noundef 62, i64 noundef %41)
  %42 = load ptr, ptr %6, align 8
  %43 = getelementptr inbounds [2 x %struct.ScanKeyData], ptr %9, i64 0, i64 0
  %44 = call ptr @systable_beginscan(ptr noundef %42, i32 noundef 2701, i1 noundef zeroext true, ptr noundef null, i32 noundef 2, ptr noundef %43)
  store ptr %44, ptr %8, align 8
  %45 = load ptr, ptr %8, align 8
  %46 = call ptr @systable_getnext(ptr noundef %45)
  store ptr %46, ptr %7, align 8
  %47 = icmp ne ptr %46, null
  br i1 %47, label %48, label %134

48:                                               ; preds = %32
  call void @llvm.lifetime.start.p0(i64 8, ptr %11) #12
  %49 = load ptr, ptr %7, align 8
  %50 = call ptr @GETSTRUCT(ptr noundef %49)
  store ptr %50, ptr %11, align 8
  %51 = load ptr, ptr %11, align 8
  %52 = getelementptr inbounds nuw %struct.FormData_pg_trigger, ptr %51, i32 0, i32 0
  %53 = load i32, ptr %52, align 4
  store i32 %53, ptr %4, align 4
  %54 = load ptr, ptr %11, align 8
  %55 = getelementptr inbounds nuw %struct.FormData_pg_trigger, ptr %54, i32 0, i32 2
  %56 = load i32, ptr %55, align 4
  %57 = icmp ne i32 %56, 0
  br i1 %57, label %58, label %83

58:                                               ; preds = %48
  br label %59

59:                                               ; preds = %58
  br i1 true, label %60, label %62

60:                                               ; preds = %59
  %61 = call zeroext i1 @errstart_cold(i32 noundef 21, ptr noundef null) #13
  br i1 %61, label %64, label %80

62:                                               ; preds = %59
  %63 = call zeroext i1 @errstart(i32 noundef 21, ptr noundef null)
  br i1 %63, label %64, label %80

64:                                               ; preds = %62, %60
  %65 = call i32 @errcode(i32 noundef 1088)
  %66 = load ptr, ptr %3, align 8
  %67 = getelementptr inbounds nuw %struct.RenameStmt, ptr %66, i32 0, i32 5
  %68 = load ptr, ptr %67, align 8
  %69 = load ptr, ptr %5, align 8
  %70 = getelementptr inbounds nuw %struct.RelationData, ptr %69, i32 0, i32 13
  %71 = load ptr, ptr %70, align 8
  %72 = getelementptr inbounds nuw %struct.FormData_pg_class, ptr %71, i32 0, i32 1
  %73 = getelementptr inbounds nuw %struct.nameData, ptr %72, i32 0, i32 0
  %74 = getelementptr inbounds [64 x i8], ptr %73, i64 0, i64 0
  %75 = call i32 (ptr, ...) @errmsg(ptr noundef @.str.58, ptr noundef %68, ptr noundef %74)
  %76 = load i32, ptr %10, align 4
  %77 = call i32 @get_partition_parent(i32 noundef %76, i1 noundef zeroext false)
  %78 = call ptr @get_rel_name(i32 noundef %77)
  %79 = call i32 (ptr, ...) @errhint(ptr noundef @.str.59, ptr noundef %78)
  call void @errfinish(ptr noundef @.str.2, i32 noundef 1531, ptr noundef @__func__.renametrig)
  br label %80

80:                                               ; preds = %64, %62, %60
  unreachable

81:                                               ; No predecessors!
  br label %82

82:                                               ; preds = %81
  br label %83

83:                                               ; preds = %82, %48
  %84 = load ptr, ptr %6, align 8
  %85 = load ptr, ptr %5, align 8
  %86 = load ptr, ptr %7, align 8
  %87 = load ptr, ptr %3, align 8
  %88 = getelementptr inbounds nuw %struct.RenameStmt, ptr %87, i32 0, i32 6
  %89 = load ptr, ptr %88, align 8
  %90 = load ptr, ptr %3, align 8
  %91 = getelementptr inbounds nuw %struct.RenameStmt, ptr %90, i32 0, i32 5
  %92 = load ptr, ptr %91, align 8
  call void @renametrig_internal(ptr noundef %84, ptr noundef %85, ptr noundef %86, ptr noundef %89, ptr noundef %92)
  %93 = load ptr, ptr %5, align 8
  %94 = getelementptr inbounds nuw %struct.RelationData, ptr %93, i32 0, i32 13
  %95 = load ptr, ptr %94, align 8
  %96 = getelementptr inbounds nuw %struct.FormData_pg_class, ptr %95, i32 0, i32 16
  %97 = load i8, ptr %96, align 1
  %98 = sext i8 %97 to i32
  %99 = icmp eq i32 %98, 112
  br i1 %99, label %100, label %133

100:                                              ; preds = %83
  call void @llvm.lifetime.start.p0(i64 8, ptr %12) #12
  %101 = load ptr, ptr %5, align 8
  %102 = call ptr @RelationGetPartitionDesc(ptr noundef %101, i1 noundef zeroext true)
  store ptr %102, ptr %12, align 8
  call void @llvm.lifetime.start.p0(i64 4, ptr %13) #12
  store i32 0, ptr %13, align 4
  br label %103

103:                                              ; preds = %129, %100
  %104 = load i32, ptr %13, align 4
  %105 = load ptr, ptr %12, align 8
  %106 = getelementptr inbounds nuw %struct.PartitionDescData, ptr %105, i32 0, i32 0
  %107 = load i32, ptr %106, align 8
  %108 = icmp slt i32 %104, %107
  br i1 %108, label %110, label %109

109:                                              ; preds = %103
  call void @llvm.lifetime.end.p0(i64 4, ptr %13) #12
  br label %132

110:                                              ; preds = %103
  call void @llvm.lifetime.start.p0(i64 4, ptr %14) #12
  %111 = load ptr, ptr %12, align 8
  %112 = getelementptr inbounds nuw %struct.PartitionDescData, ptr %111, i32 0, i32 2
  %113 = load ptr, ptr %112, align 8
  %114 = load i32, ptr %13, align 4
  %115 = sext i32 %114 to i64
  %116 = getelementptr inbounds i32, ptr %113, i64 %115
  %117 = load i32, ptr %116, align 4
  store i32 %117, ptr %14, align 4
  %118 = load ptr, ptr %6, align 8
  %119 = load i32, ptr %14, align 4
  %120 = load ptr, ptr %11, align 8
  %121 = getelementptr inbounds nuw %struct.FormData_pg_trigger, ptr %120, i32 0, i32 0
  %122 = load i32, ptr %121, align 4
  %123 = load ptr, ptr %3, align 8
  %124 = getelementptr inbounds nuw %struct.RenameStmt, ptr %123, i32 0, i32 6
  %125 = load ptr, ptr %124, align 8
  %126 = load ptr, ptr %3, align 8
  %127 = getelementptr inbounds nuw %struct.RenameStmt, ptr %126, i32 0, i32 5
  %128 = load ptr, ptr %127, align 8
  call void @renametrig_partition(ptr noundef %118, i32 noundef %119, i32 noundef %122, ptr noundef %125, ptr noundef %128)
  call void @llvm.lifetime.end.p0(i64 4, ptr %14) #12
  br label %129

129:                                              ; preds = %110
  %130 = load i32, ptr %13, align 4
  %131 = add i32 %130, 1
  store i32 %131, ptr %13, align 4
  br label %103, !llvm.loop !17

132:                                              ; preds = %109
  call void @llvm.lifetime.end.p0(i64 8, ptr %12) #12
  br label %133

133:                                              ; preds = %132, %83
  call void @llvm.lifetime.end.p0(i64 8, ptr %11) #12
  br label %155

134:                                              ; preds = %32
  br label %135

135:                                              ; preds = %134
  br i1 true, label %136, label %138

136:                                              ; preds = %135
  %137 = call zeroext i1 @errstart_cold(i32 noundef 21, ptr noundef null) #13
  br i1 %137, label %140, label %152

138:                                              ; preds = %135
  %139 = call zeroext i1 @errstart(i32 noundef 21, ptr noundef null)
  br i1 %139, label %140, label %152

140:                                              ; preds = %138, %136
  %141 = call i32 @errcode(i32 noundef 67137668)
  %142 = load ptr, ptr %3, align 8
  %143 = getelementptr inbounds nuw %struct.RenameStmt, ptr %142, i32 0, i32 5
  %144 = load ptr, ptr %143, align 8
  %145 = load ptr, ptr %5, align 8
  %146 = getelementptr inbounds nuw %struct.RelationData, ptr %145, i32 0, i32 13
  %147 = load ptr, ptr %146, align 8
  %148 = getelementptr inbounds nuw %struct.FormData_pg_class, ptr %147, i32 0, i32 1
  %149 = getelementptr inbounds nuw %struct.nameData, ptr %148, i32 0, i32 0
  %150 = getelementptr inbounds [64 x i8], ptr %149, i64 0, i64 0
  %151 = call i32 (ptr, ...) @errmsg(ptr noundef @.str.57, ptr noundef %144, ptr noundef %150)
  call void @errfinish(ptr noundef @.str.2, i32 noundef 1557, ptr noundef @__func__.renametrig)
  br label %152

152:                                              ; preds = %140, %138, %136
  unreachable

153:                                              ; No predecessors!
  br label %154

154:                                              ; preds = %153
  br label %155

155:                                              ; preds = %154, %133
  br label %156

156:                                              ; preds = %155
  %157 = getelementptr inbounds nuw %struct.ObjectAddress, ptr %2, i32 0, i32 0
  store i32 2620, ptr %157, align 4
  %158 = load i32, ptr %4, align 4
  %159 = getelementptr inbounds nuw %struct.ObjectAddress, ptr %2, i32 0, i32 1
  store i32 %158, ptr %159, align 4
  %160 = getelementptr inbounds nuw %struct.ObjectAddress, ptr %2, i32 0, i32 2
  store i32 0, ptr %160, align 4
  br label %161

161:                                              ; preds = %156
  br label %162

162:                                              ; preds = %161
  %163 = load ptr, ptr %8, align 8
  call void @systable_endscan(ptr noundef %163)
  %164 = load ptr, ptr %6, align 8
  call void @table_close(ptr noundef %164, i32 noundef 3)
  %165 = load ptr, ptr %5, align 8
  call void @relation_close(ptr noundef %165, i32 noundef 0)
  call void @llvm.lifetime.end.p0(i64 4, ptr %10) #12
  call void @llvm.lifetime.end.p0(i64 144, ptr %9) #12
  call void @llvm.lifetime.end.p0(i64 8, ptr %8) #12
  call void @llvm.lifetime.end.p0(i64 8, ptr %7) #12
  call void @llvm.lifetime.end.p0(i64 8, ptr %6) #12
  call void @llvm.lifetime.end.p0(i64 8, ptr %5) #12
  call void @llvm.lifetime.end.p0(i64 4, ptr %4) #12
  call void @llvm.memcpy.p0.p0.i64(ptr align 8 %15, ptr align 4 %2, i64 12, i1 false)
  %166 = load { i64, i32 }, ptr %15, align 8
  ret { i64, i32 } %166
}