; Function Attrs: nounwind uwtable
define dso_local { i64, i32 } @renametrig(ptr noundef readonly captures(none) %0) local_unnamed_addr #0 {
  %2 = alloca [2 x %struct.ScanKeyData], align 16
  call void @llvm.lifetime.start.p0(i64 144, ptr nonnull %2) #16
  %3 = getelementptr inbounds nuw i8, ptr %0, i64 16
  %4 = load ptr, ptr %3, align 8
  %5 = tail call i32 @RangeVarGetRelidExtended(ptr noundef %4, i32 noundef 8, i32 noundef 0, ptr noundef nonnull @RangeVarCallbackForRenameTrigger, ptr noundef null) #16
  %6 = tail call ptr @relation_open(i32 noundef %5, i32 noundef 0) #16
  %7 = getelementptr inbounds nuw i8, ptr %6, i64 56
  %8 = load ptr, ptr %7, align 8
  %9 = getelementptr inbounds nuw i8, ptr %8, i64 115
  %10 = load i8, ptr %9, align 1
  %11 = icmp eq i8 %10, 112
  br i1 %11, label %12, label %14

12:                                               ; preds = %1
  %13 = tail call ptr @find_all_inheritors(i32 noundef %5, i32 noundef 8, ptr noundef null) #16
  br label %14

14:                                               ; preds = %12, %1
  %15 = tail call ptr @table_open(i32 noundef 2620, i32 noundef 3) #16
  %16 = zext i32 %5 to i64
  call void @ScanKeyInit(ptr noundef nonnull %2, i16 noundef signext 2, i16 noundef zeroext 3, i32 noundef 184, i64 noundef %16) #16
  %17 = getelementptr inbounds nuw i8, ptr %2, i64 72
  %18 = getelementptr inbounds nuw i8, ptr %0, i64 32
  %19 = load ptr, ptr %18, align 8
  %20 = ptrtoint ptr %19 to i64
  call void @ScanKeyInit(ptr noundef nonnull %17, i16 noundef signext 4, i16 noundef zeroext 3, i32 noundef 62, i64 noundef %20) #16
  %21 = call ptr @systable_beginscan(ptr noundef %15, i32 noundef 2701, i1 noundef zeroext true, ptr noundef null, i32 noundef 2, ptr noundef nonnull %2) #16
  %22 = call ptr @systable_getnext(ptr noundef %21) #16
  %.not = icmp eq ptr %22, null
  br i1 %.not, label %65, label %23

23:                                               ; preds = %14
  %24 = getelementptr i8, ptr %22, i64 16
  %.val = load ptr, ptr %24, align 8
  %25 = getelementptr inbounds nuw i8, ptr %.val, i64 22
  %26 = load i8, ptr %25, align 2
  %27 = zext i8 %26 to i64
  %28 = getelementptr inbounds nuw i8, ptr %.val, i64 %27
  %29 = load i32, ptr %28, align 4
  %30 = getelementptr inbounds nuw i8, ptr %28, i64 8
  %31 = load i32, ptr %30, align 4
  %.not39 = icmp eq i32 %31, 0
  br i1 %.not39, label %42, label %32

32:                                               ; preds = %23
  %33 = call zeroext i1 @errstart_cold(i32 noundef 21, ptr noundef null) #17
  call void @llvm.assume(i1 %33)
  %34 = call i32 @errcode(i32 noundef 1088) #16
  %35 = load ptr, ptr %18, align 8
  %36 = load ptr, ptr %7, align 8
  %37 = getelementptr inbounds nuw i8, ptr %36, i64 4
  %38 = call i32 (ptr, ...) @errmsg(ptr noundef nonnull @.str.58, ptr noundef %35, ptr noundef nonnull %37) #16
  %39 = call i32 @get_partition_parent(i32 noundef %5, i1 noundef zeroext false) #16
  %40 = call ptr @get_rel_name(i32 noundef %39) #16
  %41 = call i32 (ptr, ...) @errhint(ptr noundef nonnull @.str.59, ptr noundef %40) #16
  call void @errfinish(ptr noundef nonnull @.str.2, i32 noundef 1531, ptr noundef nonnull @__func__.renametrig) #16
  unreachable

42:                                               ; preds = %23
  %43 = getelementptr inbounds nuw i8, ptr %0, i64 40
  %44 = load ptr, ptr %43, align 8
  %45 = load ptr, ptr %18, align 8
  call fastcc void @renametrig_internal(ptr noundef %15, ptr noundef nonnull %6, ptr noundef %22, ptr noundef %44, ptr noundef %45)
  %46 = load ptr, ptr %7, align 8
  %47 = getelementptr inbounds nuw i8, ptr %46, i64 115
  %48 = load i8, ptr %47, align 1
  %49 = icmp eq i8 %48, 112
  br i1 %49, label %50, label %.loopexit

50:                                               ; preds = %42
  %51 = call ptr @RelationGetPartitionDesc(ptr noundef nonnull %6, i1 noundef zeroext true) #16
  %52 = load i32, ptr %51, align 8
  %53 = icmp sgt i32 %52, 0
  br i1 %53, label %.lr.ph, label %.loopexit

.lr.ph:                                           ; preds = %50
  %54 = getelementptr inbounds nuw i8, ptr %51, i64 8
  br label %55

55:                                               ; preds = %.lr.ph, %55
  %indvars.iv = phi i64 [ 0, %.lr.ph ], [ %indvars.iv.next, %55 ]
  %56 = load ptr, ptr %54, align 8
  %57 = getelementptr inbounds nuw i32, ptr %56, i64 %indvars.iv
  %58 = load i32, ptr %57, align 4
  %59 = load i32, ptr %28, align 4
  %60 = load ptr, ptr %43, align 8
  %61 = load ptr, ptr %18, align 8
  call fastcc void @renametrig_partition(ptr noundef %15, i32 noundef %58, i32 noundef %59, ptr noundef %60, ptr noundef %61)
  %indvars.iv.next = add nuw nsw i64 %indvars.iv, 1
  %62 = load i32, ptr %51, align 8
  %63 = sext i32 %62 to i64
  %64 = icmp slt i64 %indvars.iv.next, %63
  br i1 %64, label %55, label %.loopexit, !llvm.loop !14

.loopexit:                                        ; preds = %55, %50, %42
  call void @systable_endscan(ptr noundef %21) #16
  call void @table_close(ptr noundef %15, i32 noundef 3) #16
  call void @relation_close(ptr noundef nonnull %6, i32 noundef 0) #16
  call void @llvm.lifetime.end.p0(i64 144, ptr nonnull %2) #16
  %.sroa.237.0.insert.ext = zext i32 %29 to i64
  %.sroa.237.0.insert.shift = shl nuw i64 %.sroa.237.0.insert.ext, 32
  %.sroa.036.0.insert.insert = or disjoint i64 %.sroa.237.0.insert.shift, 2620
  %.fca.0.insert = insertvalue { i64, i32 } poison, i64 %.sroa.036.0.insert.insert, 0
  %.fca.1.insert = insertvalue { i64, i32 } %.fca.0.insert, i32 0, 1
  ret { i64, i32 } %.fca.1.insert

65:                                               ; preds = %14
  %66 = call zeroext i1 @errstart_cold(i32 noundef 21, ptr noundef null) #17
  call void @llvm.assume(i1 %66)
  %67 = call i32 @errcode(i32 noundef 67137668) #16
  %68 = load ptr, ptr %18, align 8
  %69 = load ptr, ptr %7, align 8
  %70 = getelementptr inbounds nuw i8, ptr %69, i64 4
  %71 = call i32 (ptr, ...) @errmsg(ptr noundef nonnull @.str.57, ptr noundef %68, ptr noundef nonnull %70) #16
  call void @errfinish(ptr noundef nonnull @.str.2, i32 noundef 1557, ptr noundef nonnull @__func__.renametrig) #16
  unreachable
}